; Function Attrs: nounwind sspstrong uwtable
define dso_local void @v9fs_rattach(ptr noundef %0, ptr noundef %1) local_unnamed_addr #1 {
  tail call void @v9fs_req_recv(ptr noundef %0, i8 noundef zeroext 105)
  %.not = icmp eq ptr %1, null
  br i1 %.not, label %12, label %3

3:                                                ; preds = %2
  %4 = load ptr, ptr %0, align 8
  %5 = getelementptr inbounds nuw i8, ptr %0, i64 40
  %6 = load i64, ptr %5, align 8
  %7 = getelementptr inbounds nuw i8, ptr %0, i64 56
  %8 = load i64, ptr %7, align 8
  %9 = add i64 %8, %6
  tail call void @qtest_memread(ptr noundef %4, i64 noundef %9, ptr noundef nonnull %1, i64 noundef 13) #14
  %10 = load i64, ptr %7, align 8
  %11 = add i64 %10, 13
  store i64 %11, ptr %7, align 8
  br label %12

12:                                               ; preds = %3, %2
  %13 = load ptr, ptr @alloc, align 8
  %14 = getelementptr inbounds nuw i8, ptr %0, i64 24
  %15 = load i64, ptr %14, align 8
  tail call void @guest_free(ptr noundef %13, i64 noundef %15) #14
  %16 = load ptr, ptr @alloc, align 8
  %17 = getelementptr inbounds nuw i8, ptr %0, i64 40
  %18 = load i64, ptr %17, align 8
  tail call void @guest_free(ptr noundef %16, i64 noundef %18) #14
  tail call void @g_free(ptr noundef %0) #14
  ret void
}